; Function Attrs: mustprogress uwtable
define void @_ZNK4cvc56parser15SimplifyCommand8toStreamERSo(ptr noundef nonnull align 8 dereferenceable(64) %0, ptr noundef nonnull align 8 dereferenceable(8) %1) unnamed_addr #3 align 2 personality ptr @__gxx_personality_v0 {
  %3 = alloca %"class.cvc5::internal::NodeTemplate", align 8
  %4 = tail call noundef ptr @_ZN4cvc58internal7Printer10getPrinterERSo(ptr noundef nonnull align 8 dereferenceable(8) %1)
  %5 = getelementptr inbounds nuw i8, ptr %0, i64 16
  tail call void @llvm.experimental.noalias.scope.decl(metadata !296)
  %6 = tail call noundef nonnull align 8 dereferenceable(8) ptr @_ZNK4cvc54Term7getNodeEv(ptr noundef nonnull align 8 dereferenceable(24) %5), !noalias !296
  %7 = load ptr, ptr %6, align 8, !tbaa !64, !noalias !296
  store ptr %7, ptr %3, align 8, !tbaa !64, !alias.scope !296
  %8 = load i64, ptr %7, align 8, !noalias !296
  %9 = lshr i64 %8, 40
  %10 = trunc nuw nsw i64 %9 to i32
  %11 = and i32 %10, 1048575
  %12 = icmp samesign ult i32 %11, 1048574
  br i1 %12, label %13, label %18, !prof !67

13:                                               ; preds = %2
  %14 = add i64 %8, 1099511627776
  %15 = and i64 %14, 1152920405095219200
  %16 = and i64 %8, -1152920405095219201
  %17 = or disjoint i64 %15, %16
  store i64 %17, ptr %7, align 8, !noalias !296
  br label %_ZN4cvc56parser3Cmd10termToNodeERKNS_4TermE.exit

18:                                               ; preds = %2
  %19 = icmp eq i32 %11, 1048574
  br i1 %19, label %20, label %_ZN4cvc56parser3Cmd10termToNodeERKNS_4TermE.exit, !prof !32

20:                                               ; preds = %18
  %21 = or i64 %8, 1152920405095219200
  store i64 %21, ptr %7, align 8, !noalias !296
  tail call void @_ZN4cvc58internal4expr9NodeValue20markRefCountMaxedOutEv(ptr noundef nonnull align 8 dereferenceable(24) %7), !noalias !296
  br label %_ZN4cvc56parser3Cmd10termToNodeERKNS_4TermE.exit

_ZN4cvc56parser3Cmd10termToNodeERKNS_4TermE.exit: ; preds = %13, %18, %20
  %22 = load ptr, ptr %4, align 8, !tbaa !6
  %23 = getelementptr inbounds nuw i8, ptr %22, i64 304
  %24 = load ptr, ptr %23, align 8
  invoke void %24(ptr noundef nonnull align 8 dereferenceable(8) %4, ptr noundef nonnull align 8 dereferenceable(8) %1, ptr noundef nonnull %3)
          to label %25 unwind label %39

25:                                               ; preds = %_ZN4cvc56parser3Cmd10termToNodeERKNS_4TermE.exit
  %26 = load ptr, ptr %3, align 8, !tbaa !64
  %27 = load i64, ptr %26, align 8
  %28 = and i64 %27, 1152920405095219200
  %.not.i.i = icmp eq i64 %28, 1152920405095219200
  br i1 %.not.i.i, label %_ZN4cvc58internal12NodeTemplateILb1EED2Ev.exit, label %29, !prof !32

29:                                               ; preds = %25
  %30 = add i64 %27, 1152920405095219200
  %31 = and i64 %30, 1152920405095219200
  %32 = and i64 %27, -1152920405095219201
  %33 = or disjoint i64 %31, %32
  store i64 %33, ptr %26, align 8
  %34 = icmp eq i64 %31, 0
  br i1 %34, label %35, label %_ZN4cvc58internal12NodeTemplateILb1EED2Ev.exit, !prof !32

35:                                               ; preds = %29
  invoke void @_ZN4cvc58internal4expr9NodeValue15markForDeletionEv(ptr noundef nonnull align 8 dereferenceable(24) %26)
          to label %_ZN4cvc58internal12NodeTemplateILb1EED2Ev.exit unwind label %36

36:                                               ; preds = %35
  %37 = landingpad { ptr, i32 }
          catch ptr null
  %38 = extractvalue { ptr, i32 } %37, 0
  call void @__clang_call_terminate(ptr %38) #35
  unreachable

_ZN4cvc58internal12NodeTemplateILb1EED2Ev.exit:   ; preds = %25, %29, %35
  ret void

39:                                               ; preds = %_ZN4cvc56parser3Cmd10termToNodeERKNS_4TermE.exit
  %40 = landingpad { ptr, i32 }
          cleanup
  call void @_ZN4cvc58internal12NodeTemplateILb1EED2Ev(ptr noundef nonnull align 8 dereferenceable(8) %3) #33
  resume { ptr, i32 } %40
}